; Function Attrs: mustprogress nounwind uwtable
define void @_ZN8facebook5velox6memory14MemoryPoolImpl16leaveArbitrationEv(ptr noundef nonnull align 8 dereferenceable(480) %this) unnamed_addr #5 align 2 personality ptr @__gxx_personality_v0 {
entry:
  %vtable = load ptr, ptr %this, align 8
  %vfn = getelementptr inbounds i8, ptr %vtable, i64 304
  %0 = load ptr, ptr %vfn, align 8
  %call = invoke noundef ptr %0(ptr noundef nonnull align 8 dereferenceable(480) %this)
          to label %invoke.cont unwind label %terminate.lpad

invoke.cont:                                      ; preds = %entry
  %cmp.not = icmp eq ptr %call, null
  br i1 %cmp.not, label %if.end, label %if.then

if.then:                                          ; preds = %invoke.cont
  %vtable2 = load ptr, ptr %this, align 8
  %vfn3 = getelementptr inbounds i8, ptr %vtable2, i64 304
  %1 = load ptr, ptr %vfn3, align 8
  %call5 = invoke noundef ptr %1(ptr noundef nonnull align 8 dereferenceable(480) %this)
          to label %invoke.cont4 unwind label %terminate.lpad

invoke.cont4:                                     ; preds = %if.then
  %vtable6 = load ptr, ptr %call5, align 8
  %vfn7 = getelementptr inbounds i8, ptr %vtable6, i64 24
  %2 = load ptr, ptr %vfn7, align 8
  tail call void %2(ptr noundef nonnull align 8 dereferenceable(8) %call5) #26
  br label %if.end

if.end:                                           ; preds = %invoke.cont4, %invoke.cont
  ret void

terminate.lpad:                                   ; preds = %if.then, %entry
  %3 = landingpad { ptr, i32 }
          catch ptr null
  %4 = extractvalue { ptr, i32 } %3, 0
  tail call void @__clang_call_terminate(ptr %4) #28
  unreachable
}